target datalayout = "e-m:e-p270:32:32-p271:32:32-p272:64:64-i64:64-i128:128-f80:128-n8:16:32:64-S128"
target triple = "x86_64-pc-linux-gnu"

%struct.malloc_info = type { ptr, i32, i64, ptr, ptr }

@mi_head = global ptr null, align 8

; Function Attrs: nounwind uwtable
define void @stb_leakcheck_free(ptr noundef %0) #0 {
  %2 = alloca ptr, align 8
  %3 = alloca ptr, align 8
  store ptr %0, ptr %2, align 8, !tbaa !20
  %4 = load ptr, ptr %2, align 8, !tbaa !20
  %5 = icmp ne ptr %4, null
  br i1 %5, label %6, label %46

6:                                                ; preds = %1
  call void @llvm.lifetime.start.p0(i64 8, ptr %3) #5
  %7 = load ptr, ptr %2, align 8, !tbaa !20
  %8 = getelementptr inbounds %struct.malloc_info, ptr %7, i64 -1
  store ptr %8, ptr %3, align 8, !tbaa !12
  %9 = load ptr, ptr %3, align 8, !tbaa !12
  %10 = getelementptr inbounds nuw %struct.malloc_info, ptr %9, i32 0, i32 2
  %11 = load i64, ptr %10, align 8, !tbaa !19
  %12 = xor i64 %11, -1
  %13 = load ptr, ptr %3, align 8, !tbaa !12
  %14 = getelementptr inbounds nuw %struct.malloc_info, ptr %13, i32 0, i32 2
  store i64 %12, ptr %14, align 8, !tbaa !19
  %15 = load ptr, ptr %3, align 8, !tbaa !12
  %16 = getelementptr inbounds nuw %struct.malloc_info, ptr %15, i32 0, i32 4
  %17 = load ptr, ptr %16, align 8, !tbaa !18
  %18 = icmp eq ptr %17, null
  br i1 %18, label %19, label %23

19:                                               ; preds = %6
  %20 = load ptr, ptr %3, align 8, !tbaa !12
  %21 = getelementptr inbounds nuw %struct.malloc_info, ptr %20, i32 0, i32 3
  %22 = load ptr, ptr %21, align 8, !tbaa !17
  store ptr %22, ptr @mi_head, align 8, !tbaa !12
  br label %31

23:                                               ; preds = %6
  %24 = load ptr, ptr %3, align 8, !tbaa !12
  %25 = getelementptr inbounds nuw %struct.malloc_info, ptr %24, i32 0, i32 3
  %26 = load ptr, ptr %25, align 8, !tbaa !17
  %27 = load ptr, ptr %3, align 8, !tbaa !12
  %28 = getelementptr inbounds nuw %struct.malloc_info, ptr %27, i32 0, i32 4
  %29 = load ptr, ptr %28, align 8, !tbaa !18
  %30 = getelementptr inbounds nuw %struct.malloc_info, ptr %29, i32 0, i32 3
  store ptr %26, ptr %30, align 8, !tbaa !17
  br label %31

31:                                               ; preds = %23, %19
  %32 = load ptr, ptr %3, align 8, !tbaa !12
  %33 = getelementptr inbounds nuw %struct.malloc_info, ptr %32, i32 0, i32 3
  %34 = load ptr, ptr %33, align 8, !tbaa !17
  %35 = icmp ne ptr %34, null
  br i1 %35, label %36, label %44

36:                                               ; preds = %31
  %37 = load ptr, ptr %3, align 8, !tbaa !12
  %38 = getelementptr inbounds nuw %struct.malloc_info, ptr %37, i32 0, i32 4
  %39 = load ptr, ptr %38, align 8, !tbaa !18
  %40 = load ptr, ptr %3, align 8, !tbaa !12
  %41 = getelementptr inbounds nuw %struct.malloc_info, ptr %40, i32 0, i32 3
  %42 = load ptr, ptr %41, align 8, !tbaa !17
  %43 = getelementptr inbounds nuw %struct.malloc_info, ptr %42, i32 0, i32 4
  store ptr %39, ptr %43, align 8, !tbaa !18
  br label %44

44:                                               ; preds = %36, %31
  %45 = load ptr, ptr %3, align 8, !tbaa !12
  call void @free(ptr noundef %45) #5
  call void @llvm.lifetime.end.p0(i64 8, ptr %3) #5
  br label %46

46:                                               ; preds = %44, %1
  ret void
}