; Function Attrs: mustprogress nounwind willreturn memory(write, argmem: readwrite, inaccessiblemem: readwrite) uwtable
define void @stb_leakcheck_free(ptr noundef captures(address_is_null) %0) local_unnamed_addr #2 {
  %.not = icmp eq ptr %0, null
  br i1 %.not, label %20, label %2

2:                                                ; preds = %1
  %3 = getelementptr inbounds i8, ptr %0, i64 -40
  %4 = getelementptr inbounds i8, ptr %0, i64 -24
  %5 = load i64, ptr %4, align 8, !tbaa !16
  %6 = xor i64 %5, -1
  store i64 %6, ptr %4, align 8, !tbaa !16
  %7 = getelementptr inbounds i8, ptr %0, i64 -8
  %8 = load ptr, ptr %7, align 8, !tbaa !15
  %9 = icmp eq ptr %8, null
  %10 = getelementptr inbounds i8, ptr %0, i64 -16
  %11 = load ptr, ptr %10, align 8, !tbaa !14
  br i1 %9, label %12, label %13

12:                                               ; preds = %2
  store ptr %11, ptr @mi_head, align 8, !tbaa !13
  br label %15

13:                                               ; preds = %2
  %14 = getelementptr inbounds nuw i8, ptr %8, i64 24
  store ptr %11, ptr %14, align 8, !tbaa !14
  br label %15

15:                                               ; preds = %13, %12
  %.not14 = icmp eq ptr %11, null
  br i1 %.not14, label %19, label %16

16:                                               ; preds = %15
  %17 = load ptr, ptr %7, align 8, !tbaa !15
  %18 = getelementptr inbounds nuw i8, ptr %11, i64 32
  store ptr %17, ptr %18, align 8, !tbaa !15
  br label %19

19:                                               ; preds = %16, %15
  tail call void @free(ptr noundef nonnull %3) #9
  br label %20

20:                                               ; preds = %19, %1
  ret void
}